; Function Attrs: mustprogress nounwind uwtable
define hidden void @_ZN11G1NewTracer29send_adaptive_ihop_statisticsEmmmmddb(ptr nocapture noundef nonnull readnone align 8 dereferenceable(88) %0, i64 noundef %1, i64 noundef %2, i64 noundef %3, i64 noundef %4, double noundef %5, double noundef %6, i1 noundef zeroext %7) local_unnamed_addr #0 align 2 {
  %9 = alloca %class.EventG1AdaptiveIHOP, align 8
  %10 = getelementptr inbounds i8, ptr %9, i64 8
  call void @llvm.memset.p0.i64(ptr noundef nonnull align 8 dereferenceable(11) %10, i8 0, i64 11, i1 false)
  %11 = load i8, ptr getelementptr inbounds (i8, ptr @_ZN15JfrEventSetting19_jvm_event_settingsE, i64 1409), align 1
  %.not.i.not = icmp eq i8 %11, 0
  br i1 %.not.i.not, label %_ZN8JfrEventI19EventG1AdaptiveIHOPE13should_commitEv.exit, label %12

12:                                               ; preds = %8
  %13 = getelementptr inbounds i8, ptr %9, i64 18
  %14 = getelementptr inbounds i8, ptr %9, i64 17
  %15 = tail call noundef i64 @_ZN33FastUnorderedElapsedCounterSource3nowEv() #11
  store i64 %15, ptr %9, align 8
  store i8 1, ptr %14, align 1
  store i8 1, ptr %13, align 2
  %16 = tail call noundef i32 @_ZN4GCId7currentEv() #11
  %17 = getelementptr inbounds i8, ptr %9, i64 20
  store i32 %16, ptr %17, align 4
  %18 = getelementptr inbounds i8, ptr %9, i64 24
  store i64 %1, ptr %18, align 8
  %.not = icmp eq i64 %2, 0
  %19 = uitofp i64 %1 to double
  %20 = uitofp i64 %2 to double
  %21 = fdiv double %19, %20
  %22 = fptrunc double %21 to float
  %23 = select i1 %.not, float 0.000000e+00, float %22
  %24 = getelementptr inbounds i8, ptr %9, i64 32
  store float %23, ptr %24, align 8
  %25 = getelementptr inbounds i8, ptr %9, i64 40
  store i64 %2, ptr %25, align 8
  %26 = getelementptr inbounds i8, ptr %9, i64 48
  store i64 %3, ptr %26, align 8
  %27 = getelementptr inbounds i8, ptr %9, i64 56
  store i64 %4, ptr %27, align 8
  %28 = getelementptr inbounds i8, ptr %9, i64 64
  store double %5, ptr %28, align 8
  %29 = fmul double %6, 1.000000e+03
  %30 = fptosi double %29 to i64
  %31 = getelementptr inbounds i8, ptr %9, i64 72
  store i64 %30, ptr %31, align 8
  %32 = zext i1 %7 to i8
  %33 = getelementptr inbounds i8, ptr %9, i64 80
  store i8 %32, ptr %33, align 8
  call void @_ZN8JfrEventI19EventG1AdaptiveIHOPE6commitEv(ptr noundef nonnull align 8 dereferenceable(19) %9)
  br label %_ZN8JfrEventI19EventG1AdaptiveIHOPE13should_commitEv.exit

_ZN8JfrEventI19EventG1AdaptiveIHOPE13should_commitEv.exit: ; preds = %8, %12
  ret void
}